target datalayout = "e-m:e-p270:32:32-p271:32:32-p272:64:64-i64:64-i128:128-f80:128-n8:16:32:64-S128"
target triple = "x86_64-pc-linux-gnu"

; Function Attrs: nounwind uwtable
define internal void @unquantize_inter_differences_float(ptr noundef %0, i32 noundef %1, i32 noundef %2, float noundef %3, ptr noundef %4) #0 {
  %6 = alloca ptr, align 8
  %7 = alloca i32, align 4
  %8 = alloca i32, align 4
  %9 = alloca float, align 4
  %10 = alloca ptr, align 8
  %11 = alloca i32, align 4
  %12 = alloca i32, align 4
  %13 = alloca i32, align 4
  %14 = alloca i32, align 4
  store ptr %0, ptr %6, align 8, !tbaa !33
  store i32 %1, ptr %7, align 4, !tbaa !8
  store i32 %2, ptr %8, align 4, !tbaa !8
  store float %3, ptr %9, align 4, !tbaa !35
  store ptr %4, ptr %10, align 8, !tbaa !3
  call void @llvm.lifetime.start.p0(i64 4, ptr %11) #7
  call void @llvm.lifetime.start.p0(i64 4, ptr %12) #7
  call void @llvm.lifetime.start.p0(i64 4, ptr %13) #7
  store i32 0, ptr %12, align 4, !tbaa !8
  br label %15

15:                                               ; preds = %87, %5
  %16 = load i32, ptr %12, align 4, !tbaa !8
  %17 = load i32, ptr %7, align 4, !tbaa !8
  %18 = icmp slt i32 %16, %17
  br i1 %18, label %19, label %90

19:                                               ; preds = %15
  store i32 0, ptr %13, align 4, !tbaa !8
  br label %20

20:                                               ; preds = %83, %19
  %21 = load i32, ptr %13, align 4, !tbaa !8
  %22 = icmp slt i32 %21, 3
  br i1 %22, label %23, label %86

23:                                               ; preds = %20
  call void @llvm.lifetime.start.p0(i64 4, ptr %14) #7
  %24 = load ptr, ptr %10, align 8, !tbaa !3
  %25 = load i32, ptr %12, align 4, !tbaa !8
  %26 = mul nsw i32 %25, 3
  %27 = load i32, ptr %13, align 4, !tbaa !8
  %28 = add nsw i32 %26, %27
  %29 = sext i32 %28 to i64
  %30 = getelementptr inbounds i32, ptr %24, i64 %29
  %31 = load i32, ptr %30, align 4, !tbaa !8
  store i32 %31, ptr %14, align 4, !tbaa !8
  %32 = load i32, ptr %14, align 4, !tbaa !8
  %33 = sitofp i32 %32 to float
  %34 = load float, ptr %9, align 4, !tbaa !35
  %35 = fmul float %33, %34
  %36 = load ptr, ptr %6, align 8, !tbaa !33
  %37 = load i32, ptr %12, align 4, !tbaa !8
  %38 = mul nsw i32 %37, 3
  %39 = load i32, ptr %13, align 4, !tbaa !8
  %40 = add nsw i32 %38, %39
  %41 = sext i32 %40 to i64
  %42 = getelementptr inbounds float, ptr %36, i64 %41
  store float %35, ptr %42, align 4, !tbaa !35
  store i32 1, ptr %11, align 4, !tbaa !8
  br label %43

43:                                               ; preds = %79, %23
  %44 = load i32, ptr %11, align 4, !tbaa !8
  %45 = load i32, ptr %8, align 4, !tbaa !8
  %46 = icmp slt i32 %44, %45
  br i1 %46, label %47, label %82

47:                                               ; preds = %43
  %48 = load ptr, ptr %10, align 8, !tbaa !3
  %49 = load i32, ptr %11, align 4, !tbaa !8
  %50 = load i32, ptr %7, align 4, !tbaa !8
  %51 = mul nsw i32 %49, %50
  %52 = mul nsw i32 %51, 3
  %53 = load i32, ptr %12, align 4, !tbaa !8
  %54 = mul nsw i32 %53, 3
  %55 = add nsw i32 %52, %54
  %56 = load i32, ptr %13, align 4, !tbaa !8
  %57 = add nsw i32 %55, %56
  %58 = sext i32 %57 to i64
  %59 = getelementptr inbounds i32, ptr %48, i64 %58
  %60 = load i32, ptr %59, align 4, !tbaa !8
  %61 = load i32, ptr %14, align 4, !tbaa !8
  %62 = add nsw i32 %61, %60
  store i32 %62, ptr %14, align 4, !tbaa !8
  %63 = load i32, ptr %14, align 4, !tbaa !8
  %64 = sitofp i32 %63 to float
  %65 = load float, ptr %9, align 4, !tbaa !35
  %66 = fmul float %64, %65
  %67 = load ptr, ptr %6, align 8, !tbaa !33
  %68 = load i32, ptr %11, align 4, !tbaa !8
  %69 = load i32, ptr %7, align 4, !tbaa !8
  %70 = mul nsw i32 %68, %69
  %71 = mul nsw i32 %70, 3
  %72 = load i32, ptr %12, align 4, !tbaa !8
  %73 = mul nsw i32 %72, 3
  %74 = add nsw i32 %71, %73
  %75 = load i32, ptr %13, align 4, !tbaa !8
  %76 = add nsw i32 %74, %75
  %77 = sext i32 %76 to i64
  %78 = getelementptr inbounds float, ptr %67, i64 %77
  store float %66, ptr %78, align 4, !tbaa !35
  br label %79

79:                                               ; preds = %47
  %80 = load i32, ptr %11, align 4, !tbaa !8
  %81 = add nsw i32 %80, 1
  store i32 %81, ptr %11, align 4, !tbaa !8
  br label %43, !llvm.loop !73

82:                                               ; preds = %43
  call void @llvm.lifetime.end.p0(i64 4, ptr %14) #7
  br label %83

83:                                               ; preds = %82
  %84 = load i32, ptr %13, align 4, !tbaa !8
  %85 = add nsw i32 %84, 1
  store i32 %85, ptr %13, align 4, !tbaa !8
  br label %20, !llvm.loop !74

86:                                               ; preds = %20
  br label %87

87:                                               ; preds = %86
  %88 = load i32, ptr %12, align 4, !tbaa !8
  %89 = add nsw i32 %88, 1
  store i32 %89, ptr %12, align 4, !tbaa !8
  br label %15, !llvm.loop !75

90:                                               ; preds = %15
  call void @llvm.lifetime.end.p0(i64 4, ptr %13) #7
  call void @llvm.lifetime.end.p0(i64 4, ptr %12) #7
  call void @llvm.lifetime.end.p0(i64 4, ptr %11) #7
  ret void
}